; Function Attrs: mustprogress uwtable
define dso_local void @_ZNK3net21QuicSentPacketManager13GetDebugStateB5cxx11Ev(ptr noalias sret(%"class.std::__cxx11::basic_string") align 8 %agg.result, ptr nocapture noundef nonnull readonly align 8 dereferenceable(776) %this) unnamed_addr #0 align 2 {
entry:
  %send_algorithm_ = getelementptr inbounds i8, ptr %this, i64 488
  %0 = load ptr, ptr %send_algorithm_, align 8
  %vtable = load ptr, ptr %0, align 8
  %vfn = getelementptr inbounds i8, ptr %vtable, i64 144
  %1 = load ptr, ptr %vfn, align 8
  tail call void %1(ptr sret(%"class.std::__cxx11::basic_string") align 8 %agg.result, ptr noundef nonnull align 8 dereferenceable(8) %0)
  ret void
}